target datalayout = "e-m:e-p270:32:32-p271:32:32-p272:64:64-i64:64-i128:128-f80:128-n8:16:32:64-S128"
target triple = "x86_64-pc-linux-gnu"

%struct.ssh_bignum = type { ptr, i32 }
%struct.ssh_flow_data = type { i32, ptr, ptr, [2 x %struct.ssh_peer_data], ptr, i32, ptr, ptr, ptr, ptr, ptr, ptr, ptr, ptr, ptr, ptr, ptr, ptr, ptr, ptr, i32, i32, [6 x %struct.ssh_bignum] }
%struct.ssh_peer_data = type { i32, i32, i32, i32, i32, i32, ptr, [2 x ptr], ptr, i32, [2 x ptr], ptr, [2 x ptr], ptr, i32, i32, i32, ptr, ptr, i32, i32, i32, i32, i32, i32, i32, i32, i32, i32, i32, ptr, [12 x i8], [48 x i8], i32, ptr, ptr, ptr }

@.str.424 = private unnamed_addr constant [23 x i8] c"aes128-gcm@openssh.com\00", align 1
@.str.425 = private unnamed_addr constant [23 x i8] c"aes256-gcm@openssh.com\00", align 1
@.str.426 = private unnamed_addr constant [11 x i8] c"<implicit>\00", align 1
@.str.427 = private unnamed_addr constant [30 x i8] c"chacha20-poly1305@openssh.com\00", align 1
@.str.429 = private unnamed_addr constant [17 x i8] c"-etm@openssh.com\00", align 1
@.str.430 = private unnamed_addr constant [13 x i8] c"@openssh.com\00", align 1
@.str.431 = private unnamed_addr constant [2 x i8] c"-\00", align 1
@.str.432 = private unnamed_addr constant [10 x i8] c"hmac-sha1\00", align 1
@.str.433 = private unnamed_addr constant [9 x i8] c"hmac-md5\00", align 1
@.str.434 = private unnamed_addr constant [15 x i8] c"hmac-ripemd160\00", align 1
@.str.435 = private unnamed_addr constant [5 x i8] c"none\00", align 1
@.str.444 = private unnamed_addr constant [14 x i8] c"hmac-sha2-256\00", align 1

; Function Attrs: nounwind uwtable
define internal void @ssh_decryption_set_mac_id(ptr noundef %0) #0 {
  %2 = alloca ptr, align 8
  %3 = alloca ptr, align 8
  store ptr %0, ptr %2, align 8
  %4 = load ptr, ptr %2, align 8
  %5 = getelementptr inbounds %struct.ssh_peer_data, ptr %4, i32 0, i32 8
  %6 = load ptr, ptr %5, align 8
  store ptr %6, ptr %3, align 8
  %7 = load ptr, ptr %3, align 8
  %8 = icmp ne ptr %7, null
  br i1 %8, label %14, label %9

9:                                                ; preds = %1
  %10 = load ptr, ptr %2, align 8
  %11 = getelementptr inbounds %struct.ssh_peer_data, ptr %10, i32 0, i32 8
  store ptr null, ptr %11, align 8
  br label %12

12:                                               ; preds = %9
  br label %13

13:                                               ; preds = %12
  br label %27

14:                                               ; preds = %1
  %15 = load ptr, ptr %3, align 8
  %16 = call i32 @strcmp(ptr noundef %15, ptr noundef @.str.444) #11
  %17 = icmp eq i32 0, %16
  br i1 %17, label %18, label %21

18:                                               ; preds = %14
  %19 = load ptr, ptr %2, align 8
  %20 = getelementptr inbounds %struct.ssh_peer_data, ptr %19, i32 0, i32 16
  store i32 131073, ptr %20, align 8
  br label %26

21:                                               ; preds = %14
  %22 = load ptr, ptr %2, align 8
  %23 = getelementptr inbounds %struct.ssh_peer_data, ptr %22, i32 0, i32 8
  store ptr null, ptr %23, align 8
  br label %24

24:                                               ; preds = %21
  br label %25

25:                                               ; preds = %24
  br label %26

26:                                               ; preds = %25, %18
  br label %27

27:                                               ; preds = %26, %13
  ret void
}

; Function Attrs: nounwind uwtable
define internal void @ssh_set_mac_length(ptr noundef %0) #0 {
  %2 = alloca ptr, align 8
  %3 = alloca ptr, align 8
  %4 = alloca i32, align 4
  %5 = alloca ptr, align 8
  %6 = alloca ptr, align 8
  store ptr %0, ptr %2, align 8
  store i32 0, ptr %4, align 4
  %7 = load ptr, ptr %2, align 8
  %8 = getelementptr inbounds %struct.ssh_peer_data, ptr %7, i32 0, i32 8
  %9 = load ptr, ptr %8, align 8
  store ptr %9, ptr %5, align 8
  %10 = load ptr, ptr %5, align 8
  %11 = icmp ne ptr %10, null
  br i1 %11, label %13, label %12

12:                                               ; preds = %1
  br label %87

13:                                               ; preds = %1
  %14 = load ptr, ptr %5, align 8
  %15 = call noalias ptr @wmem_strdup(ptr noundef null, ptr noundef %14)
  store ptr %15, ptr %5, align 8
  %16 = load ptr, ptr %5, align 8
  %17 = call ptr @strstr(ptr noundef %16, ptr noundef @.str.429) #11
  store ptr %17, ptr %6, align 8
  %18 = load ptr, ptr %6, align 8
  %19 = icmp ne ptr %18, null
  br i1 %19, label %20, label %24

20:                                               ; preds = %13
  %21 = load ptr, ptr %2, align 8
  %22 = getelementptr inbounds %struct.ssh_peer_data, ptr %21, i32 0, i32 14
  store i32 1, ptr %22, align 8
  %23 = load ptr, ptr %6, align 8
  store i8 0, ptr %23, align 1
  br label %32

24:                                               ; preds = %13
  %25 = load ptr, ptr %5, align 8
  %26 = call ptr @strstr(ptr noundef %25, ptr noundef @.str.430) #11
  store ptr %26, ptr %6, align 8
  %27 = load ptr, ptr %6, align 8
  %28 = icmp ne ptr %27, null
  br i1 %28, label %29, label %31

29:                                               ; preds = %24
  %30 = load ptr, ptr %6, align 8
  store i8 0, ptr %30, align 1
  br label %31

31:                                               ; preds = %29, %24
  br label %32

32:                                               ; preds = %31, %20
  %33 = load ptr, ptr %5, align 8
  %34 = call ptr @g_strrstr(ptr noundef %33, ptr noundef @.str.431)
  store ptr %34, ptr %3, align 8
  %35 = load ptr, ptr %3, align 8
  %36 = icmp ne ptr %35, null
  br i1 %36, label %37, label %53

37:                                               ; preds = %32
  %38 = load ptr, ptr %3, align 8
  %39 = getelementptr i8, ptr %38, i64 1
  %40 = call zeroext i1 @ws_strtou32(ptr noundef %39, ptr noundef null, ptr noundef %4)
  br i1 %40, label %41, label %53

41:                                               ; preds = %37
  %42 = load i32, ptr %4, align 4
  %43 = icmp ugt i32 %42, 0
  br i1 %43, label %44, label %53

44:                                               ; preds = %41
  %45 = load i32, ptr %4, align 4
  %46 = urem i32 %45, 8
  %47 = icmp eq i32 %46, 0
  br i1 %47, label %48, label %53

48:                                               ; preds = %44
  %49 = load i32, ptr %4, align 4
  %50 = udiv i32 %49, 8
  %51 = load ptr, ptr %2, align 8
  %52 = getelementptr inbounds %struct.ssh_peer_data, ptr %51, i32 0, i32 9
  store i32 %50, ptr %52, align 8
  br label %85

53:                                               ; preds = %44, %41, %37, %32
  %54 = load ptr, ptr %5, align 8
  %55 = call i32 @strcmp(ptr noundef %54, ptr noundef @.str.432) #11
  %56 = icmp eq i32 %55, 0
  br i1 %56, label %57, label %60

57:                                               ; preds = %53
  %58 = load ptr, ptr %2, align 8
  %59 = getelementptr inbounds %struct.ssh_peer_data, ptr %58, i32 0, i32 9
  store i32 20, ptr %59, align 8
  br label %84

60:                                               ; preds = %53
  %61 = load ptr, ptr %5, align 8
  %62 = call i32 @strcmp(ptr noundef %61, ptr noundef @.str.433) #11
  %63 = icmp eq i32 %62, 0
  br i1 %63, label %64, label %67

64:                                               ; preds = %60
  %65 = load ptr, ptr %2, align 8
  %66 = getelementptr inbounds %struct.ssh_peer_data, ptr %65, i32 0, i32 9
  store i32 16, ptr %66, align 8
  br label %83

67:                                               ; preds = %60
  %68 = load ptr, ptr %5, align 8
  %69 = call i32 @strcmp(ptr noundef %68, ptr noundef @.str.434) #11
  %70 = icmp eq i32 %69, 0
  br i1 %70, label %71, label %74

71:                                               ; preds = %67
  %72 = load ptr, ptr %2, align 8
  %73 = getelementptr inbounds %struct.ssh_peer_data, ptr %72, i32 0, i32 9
  store i32 20, ptr %73, align 8
  br label %82

74:                                               ; preds = %67
  %75 = load ptr, ptr %5, align 8
  %76 = call i32 @strcmp(ptr noundef %75, ptr noundef @.str.435) #11
  %77 = icmp eq i32 %76, 0
  br i1 %77, label %78, label %81

78:                                               ; preds = %74
  %79 = load ptr, ptr %2, align 8
  %80 = getelementptr inbounds %struct.ssh_peer_data, ptr %79, i32 0, i32 9
  store i32 0, ptr %80, align 8
  br label %81

81:                                               ; preds = %78, %74
  br label %82

82:                                               ; preds = %81, %71
  br label %83

83:                                               ; preds = %82, %64
  br label %84

84:                                               ; preds = %83, %57
  br label %85

85:                                               ; preds = %84, %48
  %86 = load ptr, ptr %5, align 8
  call void @wmem_free(ptr noundef null, ptr noundef %86)
  br label %87

87:                                               ; preds = %85, %12
  ret void
}

; Function Attrs: nounwind uwtable
define internal void @ssh_choose_enc_mac(ptr noundef %0) #0 {
  %2 = alloca ptr, align 8
  %3 = alloca i32, align 4
  %4 = alloca ptr, align 8
  store ptr %0, ptr %2, align 8
  store i32 0, ptr %3, align 4
  br label %5

5:                                                ; preds = %115, %1
  %6 = load i32, ptr %3, align 4
  %7 = icmp slt i32 %6, 2
  br i1 %7, label %8, label %118

8:                                                ; preds = %5
  %9 = load ptr, ptr %2, align 8
  %10 = getelementptr inbounds %struct.ssh_flow_data, ptr %9, i32 0, i32 3
  %11 = load i32, ptr %3, align 4
  %12 = sext i32 %11 to i64
  %13 = getelementptr [2 x %struct.ssh_peer_data], ptr %10, i64 0, i64 %12
  store ptr %13, ptr %4, align 8
  %14 = load ptr, ptr %2, align 8
  %15 = getelementptr inbounds %struct.ssh_flow_data, ptr %14, i32 0, i32 3
  %16 = getelementptr [2 x %struct.ssh_peer_data], ptr %15, i64 0, i64 0
  %17 = getelementptr inbounds %struct.ssh_peer_data, ptr %16, i32 0, i32 10
  %18 = load i32, ptr %3, align 4
  %19 = sext i32 %18 to i64
  %20 = getelementptr [2 x ptr], ptr %17, i64 0, i64 %19
  %21 = load ptr, ptr %20, align 8
  %22 = load ptr, ptr %2, align 8
  %23 = getelementptr inbounds %struct.ssh_flow_data, ptr %22, i32 0, i32 3
  %24 = getelementptr [2 x %struct.ssh_peer_data], ptr %23, i64 0, i64 1
  %25 = getelementptr inbounds %struct.ssh_peer_data, ptr %24, i32 0, i32 10
  %26 = load i32, ptr %3, align 4
  %27 = sext i32 %26 to i64
  %28 = getelementptr [2 x ptr], ptr %25, i64 0, i64 %27
  %29 = load ptr, ptr %28, align 8
  %30 = load ptr, ptr %4, align 8
  %31 = getelementptr inbounds %struct.ssh_peer_data, ptr %30, i32 0, i32 11
  call void @ssh_choose_algo(ptr noundef %21, ptr noundef %29, ptr noundef %31)
  %32 = load ptr, ptr %4, align 8
  %33 = getelementptr inbounds %struct.ssh_peer_data, ptr %32, i32 0, i32 11
  %34 = load ptr, ptr %33, align 8
  %35 = icmp ne ptr %34, null
  br i1 %35, label %36, label %57

36:                                               ; preds = %8
  %37 = load ptr, ptr %4, align 8
  %38 = getelementptr inbounds %struct.ssh_peer_data, ptr %37, i32 0, i32 11
  %39 = load ptr, ptr %38, align 8
  %40 = call i32 @strcmp(ptr noundef %39, ptr noundef @.str.424) #11
  %41 = icmp eq i32 0, %40
  br i1 %41, label %48, label %42

42:                                               ; preds = %36
  %43 = load ptr, ptr %4, align 8
  %44 = getelementptr inbounds %struct.ssh_peer_data, ptr %43, i32 0, i32 11
  %45 = load ptr, ptr %44, align 8
  %46 = call i32 @strcmp(ptr noundef %45, ptr noundef @.str.425) #11
  %47 = icmp eq i32 0, %46
  br i1 %47, label %48, label %57

48:                                               ; preds = %42, %36
  %49 = call ptr @wmem_file_scope()
  %50 = call noalias ptr @wmem_strdup(ptr noundef %49, ptr noundef @.str.426)
  %51 = load ptr, ptr %4, align 8
  %52 = getelementptr inbounds %struct.ssh_peer_data, ptr %51, i32 0, i32 8
  store ptr %50, ptr %52, align 8
  %53 = load ptr, ptr %4, align 8
  %54 = getelementptr inbounds %struct.ssh_peer_data, ptr %53, i32 0, i32 9
  store i32 16, ptr %54, align 8
  %55 = load ptr, ptr %4, align 8
  %56 = getelementptr inbounds %struct.ssh_peer_data, ptr %55, i32 0, i32 14
  store i32 1, ptr %56, align 8
  br label %96

57:                                               ; preds = %42, %8
  %58 = load ptr, ptr %4, align 8
  %59 = getelementptr inbounds %struct.ssh_peer_data, ptr %58, i32 0, i32 11
  %60 = load ptr, ptr %59, align 8
  %61 = icmp ne ptr %60, null
  br i1 %61, label %62, label %75

62:                                               ; preds = %57
  %63 = load ptr, ptr %4, align 8
  %64 = getelementptr inbounds %struct.ssh_peer_data, ptr %63, i32 0, i32 11
  %65 = load ptr, ptr %64, align 8
  %66 = call i32 @strcmp(ptr noundef %65, ptr noundef @.str.427) #11
  %67 = icmp eq i32 0, %66
  br i1 %67, label %68, label %75

68:                                               ; preds = %62
  %69 = call ptr @wmem_file_scope()
  %70 = call noalias ptr @wmem_strdup(ptr noundef %69, ptr noundef @.str.426)
  %71 = load ptr, ptr %4, align 8
  %72 = getelementptr inbounds %struct.ssh_peer_data, ptr %71, i32 0, i32 8
  store ptr %70, ptr %72, align 8
  %73 = load ptr, ptr %4, align 8
  %74 = getelementptr inbounds %struct.ssh_peer_data, ptr %73, i32 0, i32 9
  store i32 16, ptr %74, align 8
  br label %95

75:                                               ; preds = %62, %57
  %76 = load ptr, ptr %2, align 8
  %77 = getelementptr inbounds %struct.ssh_flow_data, ptr %76, i32 0, i32 3
  %78 = getelementptr [2 x %struct.ssh_peer_data], ptr %77, i64 0, i64 0
  %79 = getelementptr inbounds %struct.ssh_peer_data, ptr %78, i32 0, i32 7
  %80 = load i32, ptr %3, align 4
  %81 = sext i32 %80 to i64
  %82 = getelementptr [2 x ptr], ptr %79, i64 0, i64 %81
  %83 = load ptr, ptr %82, align 8
  %84 = load ptr, ptr %2, align 8
  %85 = getelementptr inbounds %struct.ssh_flow_data, ptr %84, i32 0, i32 3
  %86 = getelementptr [2 x %struct.ssh_peer_data], ptr %85, i64 0, i64 1
  %87 = getelementptr inbounds %struct.ssh_peer_data, ptr %86, i32 0, i32 7
  %88 = load i32, ptr %3, align 4
  %89 = sext i32 %88 to i64
  %90 = getelementptr [2 x ptr], ptr %87, i64 0, i64 %89
  %91 = load ptr, ptr %90, align 8
  %92 = load ptr, ptr %4, align 8
  %93 = getelementptr inbounds %struct.ssh_peer_data, ptr %92, i32 0, i32 8
  call void @ssh_choose_algo(ptr noundef %83, ptr noundef %91, ptr noundef %93)
  %94 = load ptr, ptr %4, align 8
  call void @ssh_set_mac_length(ptr noundef %94)
  br label %95

95:                                               ; preds = %75, %68
  br label %96

96:                                               ; preds = %95, %48
  %97 = load ptr, ptr %2, align 8
  %98 = getelementptr inbounds %struct.ssh_flow_data, ptr %97, i32 0, i32 3
  %99 = getelementptr [2 x %struct.ssh_peer_data], ptr %98, i64 0, i64 0
  %100 = getelementptr inbounds %struct.ssh_peer_data, ptr %99, i32 0, i32 12
  %101 = load i32, ptr %3, align 4
  %102 = sext i32 %101 to i64
  %103 = getelementptr [2 x ptr], ptr %100, i64 0, i64 %102
  %104 = load ptr, ptr %103, align 8
  %105 = load ptr, ptr %2, align 8
  %106 = getelementptr inbounds %struct.ssh_flow_data, ptr %105, i32 0, i32 3
  %107 = getelementptr [2 x %struct.ssh_peer_data], ptr %106, i64 0, i64 1
  %108 = getelementptr inbounds %struct.ssh_peer_data, ptr %107, i32 0, i32 12
  %109 = load i32, ptr %3, align 4
  %110 = sext i32 %109 to i64
  %111 = getelementptr [2 x ptr], ptr %108, i64 0, i64 %110
  %112 = load ptr, ptr %111, align 8
  %113 = load ptr, ptr %4, align 8
  %114 = getelementptr inbounds %struct.ssh_peer_data, ptr %113, i32 0, i32 13
  call void @ssh_choose_algo(ptr noundef %104, ptr noundef %112, ptr noundef %114)
  br label %115

115:                                              ; preds = %96
  %116 = load i32, ptr %3, align 4
  %117 = add i32 %116, 1
  store i32 %117, ptr %3, align 4
  br label %5, !llvm.loop !11

118:                                              ; preds = %5
  %119 = load ptr, ptr %2, align 8
  %120 = getelementptr inbounds %struct.ssh_flow_data, ptr %119, i32 0, i32 3
  %121 = getelementptr [2 x %struct.ssh_peer_data], ptr %120, i64 0, i64 0
  call void @ssh_decryption_set_cipher_id(ptr noundef %121)
  %122 = load ptr, ptr %2, align 8
  %123 = getelementptr inbounds %struct.ssh_flow_data, ptr %122, i32 0, i32 3
  %124 = getelementptr [2 x %struct.ssh_peer_data], ptr %123, i64 0, i64 0
  call void @ssh_decryption_set_mac_id(ptr noundef %124)
  %125 = load ptr, ptr %2, align 8
  %126 = getelementptr inbounds %struct.ssh_flow_data, ptr %125, i32 0, i32 3
  %127 = getelementptr [2 x %struct.ssh_peer_data], ptr %126, i64 0, i64 1
  call void @ssh_decryption_set_cipher_id(ptr noundef %127)
  %128 = load ptr, ptr %2, align 8
  %129 = getelementptr inbounds %struct.ssh_flow_data, ptr %128, i32 0, i32 3
  %130 = getelementptr [2 x %struct.ssh_peer_data], ptr %129, i64 0, i64 1
  call void @ssh_decryption_set_mac_id(ptr noundef %130)
  ret void
}