; Function Attrs: nounwind uwtable
define internal fastcc void @ssh_choose_enc_mac(ptr noundef %0) unnamed_addr #0 {
  %2 = alloca i32, align 4
  %3 = getelementptr inbounds nuw i8, ptr %0, i64 24
  %4 = getelementptr inbounds nuw i8, ptr %0, i64 88
  %5 = getelementptr i8, ptr %0, i64 376
  %6 = getelementptr inbounds nuw i8, ptr %0, i64 56
  %7 = getelementptr i8, ptr %0, i64 344
  %8 = getelementptr inbounds nuw i8, ptr %0, i64 112
  %9 = getelementptr i8, ptr %0, i64 400
  br label %10

10:                                               ; preds = %1, %78
  %11 = phi i1 [ true, %1 ], [ false, %78 ]
  %indvars.iv = phi i64 [ 0, %1 ], [ 1, %78 ]
  %12 = getelementptr [2 x %struct.ssh_peer_data], ptr %3, i64 0, i64 %indvars.iv
  %13 = getelementptr [2 x ptr], ptr %4, i64 0, i64 %indvars.iv
  %14 = load ptr, ptr %13, align 8
  %15 = getelementptr [2 x ptr], ptr %5, i64 0, i64 %indvars.iv
  %16 = load ptr, ptr %15, align 8
  %17 = getelementptr inbounds nuw i8, ptr %12, i64 80
  call fastcc void @ssh_choose_algo(ptr noundef %14, ptr noundef %16, ptr noundef nonnull %17)
  %18 = load ptr, ptr %17, align 8
  %.not = icmp eq ptr %18, null
  br i1 %.not, label %.thread, label %19

19:                                               ; preds = %10
  %20 = call i32 @strcmp(ptr noundef nonnull dereferenceable(1) %18, ptr noundef nonnull dereferenceable(23) @.str.424) #22
  %21 = icmp eq i32 %20, 0
  br i1 %21, label %25, label %22

22:                                               ; preds = %19
  %23 = call i32 @strcmp(ptr noundef nonnull dereferenceable(1) %18, ptr noundef nonnull dereferenceable(23) @.str.425) #22
  %24 = icmp eq i32 %23, 0
  br i1 %24, label %25, label %31

25:                                               ; preds = %22, %19
  %26 = call ptr @wmem_file_scope() #21
  %27 = call noalias ptr @wmem_strdup(ptr noundef %26, ptr noundef nonnull @.str.426) #21
  %28 = getelementptr inbounds nuw i8, ptr %12, i64 48
  store ptr %27, ptr %28, align 8
  %29 = getelementptr inbounds nuw i8, ptr %12, i64 56
  store i32 16, ptr %29, align 8
  %30 = getelementptr inbounds nuw i8, ptr %12, i64 112
  store i32 1, ptr %30, align 8
  br label %78

31:                                               ; preds = %22
  %32 = call i32 @strcmp(ptr noundef nonnull dereferenceable(1) %18, ptr noundef nonnull dereferenceable(30) @.str.427) #22
  %33 = icmp eq i32 %32, 0
  br i1 %33, label %34, label %.thread

34:                                               ; preds = %31
  %35 = call ptr @wmem_file_scope() #21
  %36 = call noalias ptr @wmem_strdup(ptr noundef %35, ptr noundef nonnull @.str.426) #21
  %37 = getelementptr inbounds nuw i8, ptr %12, i64 48
  store ptr %36, ptr %37, align 8
  %38 = getelementptr inbounds nuw i8, ptr %12, i64 56
  store i32 16, ptr %38, align 8
  br label %78

.thread:                                          ; preds = %10, %31
  %39 = getelementptr [2 x ptr], ptr %6, i64 0, i64 %indvars.iv
  %40 = load ptr, ptr %39, align 8
  %41 = getelementptr [2 x ptr], ptr %7, i64 0, i64 %indvars.iv
  %42 = load ptr, ptr %41, align 8
  %43 = getelementptr inbounds nuw i8, ptr %12, i64 48
  call fastcc void @ssh_choose_algo(ptr noundef %40, ptr noundef %42, ptr noundef nonnull %43)
  call void @llvm.lifetime.start.p0(i64 4, ptr nonnull %2)
  store i32 0, ptr %2, align 4
  %44 = load ptr, ptr %43, align 8
  %.not.i = icmp eq ptr %44, null
  br i1 %.not.i, label %ssh_set_mac_length.exit, label %45

45:                                               ; preds = %.thread
  %46 = call noalias ptr @wmem_strdup(ptr noundef null, ptr noundef nonnull %44) #21
  %47 = call ptr @strstr(ptr noundef nonnull dereferenceable(1) %46, ptr noundef nonnull dereferenceable(1) @.str.429) #22
  %.not28.i = icmp eq ptr %47, null
  br i1 %.not28.i, label %50, label %48

48:                                               ; preds = %45
  %49 = getelementptr inbounds nuw i8, ptr %12, i64 112
  store i32 1, ptr %49, align 8
  br label %.sink.split.i

50:                                               ; preds = %45
  %51 = call ptr @strstr(ptr noundef nonnull dereferenceable(1) %46, ptr noundef nonnull dereferenceable(1) @.str.430) #22
  %.not29.i = icmp eq ptr %51, null
  br i1 %.not29.i, label %52, label %.sink.split.i

.sink.split.i:                                    ; preds = %50, %48
  %.sink.i = phi ptr [ %47, %48 ], [ %51, %50 ]
  store i8 0, ptr %.sink.i, align 1
  br label %52

52:                                               ; preds = %.sink.split.i, %50
  %53 = call ptr @g_strrstr(ptr noundef nonnull %46, ptr noundef nonnull @.str.431) #21
  %.not30.i = icmp eq ptr %53, null
  br i1 %.not30.i, label %64, label %54

54:                                               ; preds = %52
  %55 = getelementptr i8, ptr %53, i64 1
  %56 = call zeroext i1 @ws_strtou32(ptr noundef %55, ptr noundef null, ptr noundef nonnull %2) #21
  %57 = load i32, ptr %2, align 4
  %58 = icmp ne i32 %57, 0
  %59 = and i32 %57, 7
  %60 = icmp eq i32 %59, 0
  %61 = and i1 %58, %60
  %or.cond32.i = select i1 %56, i1 %61, i1 false
  br i1 %or.cond32.i, label %62, label %64

62:                                               ; preds = %54
  %63 = lshr exact i32 %57, 3
  br label %.sink.split33.i

64:                                               ; preds = %54, %52
  %65 = call i32 @strcmp(ptr noundef nonnull dereferenceable(1) %46, ptr noundef nonnull dereferenceable(10) @.str.432) #22
  %66 = icmp eq i32 %65, 0
  br i1 %66, label %.sink.split33.i, label %67

67:                                               ; preds = %64
  %68 = call i32 @strcmp(ptr noundef nonnull dereferenceable(1) %46, ptr noundef nonnull dereferenceable(9) @.str.433) #22
  %69 = icmp eq i32 %68, 0
  br i1 %69, label %.sink.split33.i, label %70

70:                                               ; preds = %67
  %71 = call i32 @strcmp(ptr noundef nonnull dereferenceable(1) %46, ptr noundef nonnull dereferenceable(15) @.str.434) #22
  %72 = icmp eq i32 %71, 0
  br i1 %72, label %.sink.split33.i, label %73

73:                                               ; preds = %70
  %74 = call i32 @strcmp(ptr noundef nonnull dereferenceable(1) %46, ptr noundef nonnull dereferenceable(5) @.str.435) #22
  %75 = icmp eq i32 %74, 0
  br i1 %75, label %.sink.split33.i, label %77

.sink.split33.i:                                  ; preds = %73, %70, %67, %64, %62
  %.sink34.i = phi i32 [ %63, %62 ], [ 20, %64 ], [ 16, %67 ], [ 20, %70 ], [ 0, %73 ]
  %76 = getelementptr inbounds nuw i8, ptr %12, i64 56
  store i32 %.sink34.i, ptr %76, align 8
  br label %77

77:                                               ; preds = %.sink.split33.i, %73
  call void @wmem_free(ptr noundef null, ptr noundef nonnull %46) #21
  br label %ssh_set_mac_length.exit

ssh_set_mac_length.exit:                          ; preds = %.thread, %77
  call void @llvm.lifetime.end.p0(i64 4, ptr nonnull %2)
  br label %78

78:                                               ; preds = %34, %ssh_set_mac_length.exit, %25
  %79 = getelementptr [2 x ptr], ptr %8, i64 0, i64 %indvars.iv
  %80 = load ptr, ptr %79, align 8
  %81 = getelementptr [2 x ptr], ptr %9, i64 0, i64 %indvars.iv
  %82 = load ptr, ptr %81, align 8
  %83 = getelementptr inbounds nuw i8, ptr %12, i64 104
  call fastcc void @ssh_choose_algo(ptr noundef %80, ptr noundef %82, ptr noundef nonnull %83)
  br i1 %11, label %10, label %84, !llvm.loop !15

84:                                               ; preds = %78
  call fastcc void @ssh_decryption_set_cipher_id(ptr noundef nonnull %3)
  %85 = getelementptr inbounds nuw i8, ptr %0, i64 72
  %86 = load ptr, ptr %85, align 8
  %.not.i36 = icmp eq ptr %86, null
  br i1 %.not.i36, label %ssh_decryption_set_mac_id.exit, label %87

87:                                               ; preds = %84
  %88 = call i32 @strcmp(ptr noundef nonnull dereferenceable(1) %86, ptr noundef nonnull dereferenceable(14) @.str.444) #22
  %89 = icmp eq i32 %88, 0
  br i1 %89, label %90, label %92

90:                                               ; preds = %87
  %91 = getelementptr inbounds nuw i8, ptr %0, i64 144
  store i32 131073, ptr %91, align 8
  br label %ssh_decryption_set_mac_id.exit

92:                                               ; preds = %87
  store ptr null, ptr %85, align 8
  br label %ssh_decryption_set_mac_id.exit

ssh_decryption_set_mac_id.exit:                   ; preds = %84, %90, %92
  %93 = getelementptr i8, ptr %0, i64 312
  call fastcc void @ssh_decryption_set_cipher_id(ptr noundef %93)
  %94 = getelementptr i8, ptr %0, i64 360
  %95 = load ptr, ptr %94, align 8
  %.not.i37 = icmp eq ptr %95, null
  br i1 %.not.i37, label %ssh_decryption_set_mac_id.exit38, label %96

96:                                               ; preds = %ssh_decryption_set_mac_id.exit
  %97 = call i32 @strcmp(ptr noundef nonnull dereferenceable(1) %95, ptr noundef nonnull dereferenceable(14) @.str.444) #22
  %98 = icmp eq i32 %97, 0
  br i1 %98, label %99, label %101

99:                                               ; preds = %96
  %100 = getelementptr i8, ptr %0, i64 432
  store i32 131073, ptr %100, align 8
  br label %ssh_decryption_set_mac_id.exit38

101:                                              ; preds = %96
  store ptr null, ptr %94, align 8
  br label %ssh_decryption_set_mac_id.exit38

ssh_decryption_set_mac_id.exit38:                 ; preds = %ssh_decryption_set_mac_id.exit, %99, %101
  ret void
}